target datalayout = "e-m:e-p270:32:32-p271:32:32-p272:64:64-i64:64-i128:128-f80:128-n8:16:32:64-S128"
target triple = "x86_64-pc-linux-gnu"

%struct.XLogCtlData = type { %struct.XLogCtlInsert, %struct.XLogwrtRqst, i64, %struct.FullTransactionId, i64, i64, i64, %struct.pg_atomic_uint64, i64, i64, %struct.pg_atomic_uint64, %struct.pg_atomic_uint64, %struct.pg_atomic_uint64, i64, ptr, ptr, i32, i32, i32, i32, i8, i8, i64, i64, %struct.CheckPoint, i64, i8 }
%struct.XLogCtlInsert = type { i8, i64, i64, [128 x i8], i64, i8, i32, i64, ptr }
%struct.XLogwrtRqst = type { i64, i64 }
%struct.FullTransactionId = type { i64 }
%struct.pg_atomic_uint64 = type { i64 }
%struct.CheckPoint = type { i64, i32, i32, i8, i32, %struct.FullTransactionId, i32, i32, i32, i32, i32, i32, i32, i64, i32, i32, i32 }
%union.WALInsertLockPadded = type { %struct.WALInsertLock, [96 x i8] }
%struct.WALInsertLock = type { %struct.LWLock, %struct.pg_atomic_uint64, i64 }
%struct.LWLock = type { i16, %struct.pg_atomic_uint32, %struct.proclist_head }
%struct.pg_atomic_uint32 = type { i32 }
%struct.proclist_head = type { i32, i32 }

@fullPageWrites = dso_local global i8 1, align 1
@wal_level = dso_local global i32 1, align 4
@XLogCtl = internal global ptr null, align 8
@CritSectionCount = external global i32, align 4
@holdingAllLocks = internal global i8 0, align 1
@MyLockNo = internal global i32 0, align 4
@WALInsertLocks = internal global ptr null, align 8
@LocalRecoveryInProgress = internal global i8 1, align 1

; Function Attrs: nounwind uwtable
define internal void @WALInsertLockRelease() #0 {
  %1 = alloca i32, align 4
  %2 = load i8, ptr @holdingAllLocks, align 1, !range !4, !noundef !5
  %3 = trunc i8 %2 to i1
  br i1 %3, label %4, label %23

4:                                                ; preds = %0
  call void @llvm.lifetime.start.p0(i64 4, ptr %1) #16
  store i32 0, ptr %1, align 4
  br label %5

5:                                                ; preds = %19, %4
  %6 = load i32, ptr %1, align 4
  %7 = icmp slt i32 %6, 8
  br i1 %7, label %8, label %22

8:                                                ; preds = %5
  %9 = load ptr, ptr @WALInsertLocks, align 8
  %10 = load i32, ptr %1, align 4
  %11 = sext i32 %10 to i64
  %12 = getelementptr inbounds %union.WALInsertLockPadded, ptr %9, i64 %11
  %13 = getelementptr inbounds nuw %struct.WALInsertLock, ptr %12, i32 0, i32 0
  %14 = load ptr, ptr @WALInsertLocks, align 8
  %15 = load i32, ptr %1, align 4
  %16 = sext i32 %15 to i64
  %17 = getelementptr inbounds %union.WALInsertLockPadded, ptr %14, i64 %16
  %18 = getelementptr inbounds nuw %struct.WALInsertLock, ptr %17, i32 0, i32 1
  call void @LWLockReleaseClearVar(ptr noundef %13, ptr noundef %18, i64 noundef 0)
  br label %19

19:                                               ; preds = %8
  %20 = load i32, ptr %1, align 4
  %21 = add i32 %20, 1
  store i32 %21, ptr %1, align 4
  br label %5, !llvm.loop !8

22:                                               ; preds = %5
  store i8 0, ptr @holdingAllLocks, align 1
  call void @llvm.lifetime.end.p0(i64 4, ptr %1) #16
  br label %34

23:                                               ; preds = %0
  %24 = load ptr, ptr @WALInsertLocks, align 8
  %25 = load i32, ptr @MyLockNo, align 4
  %26 = sext i32 %25 to i64
  %27 = getelementptr inbounds %union.WALInsertLockPadded, ptr %24, i64 %26
  %28 = getelementptr inbounds nuw %struct.WALInsertLock, ptr %27, i32 0, i32 0
  %29 = load ptr, ptr @WALInsertLocks, align 8
  %30 = load i32, ptr @MyLockNo, align 4
  %31 = sext i32 %30 to i64
  %32 = getelementptr inbounds %union.WALInsertLockPadded, ptr %29, i64 %31
  %33 = getelementptr inbounds nuw %struct.WALInsertLock, ptr %32, i32 0, i32 1
  call void @LWLockReleaseClearVar(ptr noundef %28, ptr noundef %33, i64 noundef 0)
  br label %34

34:                                               ; preds = %23, %22
  ret void
}

; Function Attrs: nounwind uwtable
define internal void @WALInsertLockAcquireExclusive() #0 {
  %1 = alloca i32, align 4
  call void @llvm.lifetime.start.p0(i64 4, ptr %1) #16
  store i32 0, ptr %1, align 4
  br label %2

2:                                                ; preds = %22, %0
  %3 = load i32, ptr %1, align 4
  %4 = icmp slt i32 %3, 7
  br i1 %4, label %5, label %25

5:                                                ; preds = %2
  %6 = load ptr, ptr @WALInsertLocks, align 8
  %7 = load i32, ptr %1, align 4
  %8 = sext i32 %7 to i64
  %9 = getelementptr inbounds %union.WALInsertLockPadded, ptr %6, i64 %8
  %10 = getelementptr inbounds nuw %struct.WALInsertLock, ptr %9, i32 0, i32 0
  %11 = call zeroext i1 @LWLockAcquire(ptr noundef %10, i32 noundef 0)
  %12 = load ptr, ptr @WALInsertLocks, align 8
  %13 = load i32, ptr %1, align 4
  %14 = sext i32 %13 to i64
  %15 = getelementptr inbounds %union.WALInsertLockPadded, ptr %12, i64 %14
  %16 = getelementptr inbounds nuw %struct.WALInsertLock, ptr %15, i32 0, i32 0
  %17 = load ptr, ptr @WALInsertLocks, align 8
  %18 = load i32, ptr %1, align 4
  %19 = sext i32 %18 to i64
  %20 = getelementptr inbounds %union.WALInsertLockPadded, ptr %17, i64 %19
  %21 = getelementptr inbounds nuw %struct.WALInsertLock, ptr %20, i32 0, i32 1
  call void @LWLockUpdateVar(ptr noundef %16, ptr noundef %21, i64 noundef -1)
  br label %22

22:                                               ; preds = %5
  %23 = load i32, ptr %1, align 4
  %24 = add i32 %23, 1
  store i32 %24, ptr %1, align 4
  br label %2, !llvm.loop !11

25:                                               ; preds = %2
  %26 = load ptr, ptr @WALInsertLocks, align 8
  %27 = load i32, ptr %1, align 4
  %28 = sext i32 %27 to i64
  %29 = getelementptr inbounds %union.WALInsertLockPadded, ptr %26, i64 %28
  %30 = getelementptr inbounds nuw %struct.WALInsertLock, ptr %29, i32 0, i32 0
  %31 = call zeroext i1 @LWLockAcquire(ptr noundef %30, i32 noundef 0)
  store i8 1, ptr @holdingAllLocks, align 1
  call void @llvm.lifetime.end.p0(i64 4, ptr %1) #16
  ret void
}

; Function Attrs: nounwind uwtable
define dso_local zeroext i1 @RecoveryInProgress() #0 {
  %1 = alloca i1, align 1
  %2 = alloca ptr, align 8
  %3 = load i8, ptr @LocalRecoveryInProgress, align 1, !range !4, !noundef !5
  %4 = trunc i8 %3 to i1
  br i1 %4, label %6, label %5

5:                                                ; preds = %0
  store i1 false, ptr %1, align 1
  br label %15

6:                                                ; preds = %0
  call void @llvm.lifetime.start.p0(i64 8, ptr %2) #16
  %7 = load ptr, ptr @XLogCtl, align 8
  store ptr %7, ptr %2, align 8
  %8 = load ptr, ptr %2, align 8
  %9 = getelementptr inbounds nuw %struct.XLogCtlData, ptr %8, i32 0, i32 19
  %10 = load volatile i32, ptr %9, align 4
  %11 = icmp ne i32 %10, 2
  %12 = zext i1 %11 to i8
  store i8 %12, ptr @LocalRecoveryInProgress, align 1
  %13 = load i8, ptr @LocalRecoveryInProgress, align 1, !range !4, !noundef !5
  %14 = trunc i8 %13 to i1
  store i1 %14, ptr %1, align 1
  call void @llvm.lifetime.end.p0(i64 8, ptr %2) #16
  br label %15

15:                                               ; preds = %6, %5
  %16 = load i1, ptr %1, align 1
  ret i1 %16
}

; Function Attrs: nounwind uwtable
define dso_local void @UpdateFullPageWrites() #0 {
  %1 = alloca ptr, align 8
  %2 = alloca i8, align 1
  %3 = alloca i32, align 4
  call void @llvm.lifetime.start.p0(i64 8, ptr %1) #16
  %4 = load ptr, ptr @XLogCtl, align 8
  %5 = getelementptr inbounds nuw %struct.XLogCtlData, ptr %4, i32 0, i32 0
  store ptr %5, ptr %1, align 8
  call void @llvm.lifetime.start.p0(i64 1, ptr %2) #16
  %6 = load i8, ptr @fullPageWrites, align 1, !range !4, !noundef !5
  %7 = trunc i8 %6 to i1
  %8 = zext i1 %7 to i32
  %9 = load ptr, ptr %1, align 8
  %10 = getelementptr inbounds nuw %struct.XLogCtlInsert, ptr %9, i32 0, i32 5
  %11 = load i8, ptr %10, align 8, !range !4, !noundef !5
  %12 = trunc i8 %11 to i1
  %13 = zext i1 %12 to i32
  %14 = icmp eq i32 %8, %13
  br i1 %14, label %15, label %16

15:                                               ; preds = %0
  store i32 1, ptr %3, align 4
  br label %46

16:                                               ; preds = %0
  %17 = call zeroext i1 @RecoveryInProgress()
  %18 = zext i1 %17 to i8
  store i8 %18, ptr %2, align 1
  %19 = load volatile i32, ptr @CritSectionCount, align 4
  %20 = add i32 %19, 1
  store volatile i32 %20, ptr @CritSectionCount, align 4
  %21 = load i8, ptr @fullPageWrites, align 1, !range !4, !noundef !5
  %22 = trunc i8 %21 to i1
  br i1 %22, label %23, label %26

23:                                               ; preds = %16
  call void @WALInsertLockAcquireExclusive()
  %24 = load ptr, ptr %1, align 8
  %25 = getelementptr inbounds nuw %struct.XLogCtlInsert, ptr %24, i32 0, i32 5
  store i8 1, ptr %25, align 8
  call void @WALInsertLockRelease()
  br label %26

26:                                               ; preds = %23, %16
  %27 = load i32, ptr @wal_level, align 4
  %28 = icmp sge i32 %27, 1
  br i1 %28, label %29, label %34

29:                                               ; preds = %26
  %30 = load i8, ptr %2, align 1, !range !4, !noundef !5
  %31 = trunc i8 %30 to i1
  br i1 %31, label %34, label %32

32:                                               ; preds = %29
  call void @XLogBeginInsert()
  call void @XLogRegisterData(ptr noundef @fullPageWrites, i32 noundef 1)
  %33 = call i64 @XLogInsert(i8 noundef zeroext 0, i8 noundef zeroext -128)
  br label %34

34:                                               ; preds = %32, %29, %26
  %35 = load i8, ptr @fullPageWrites, align 1, !range !4, !noundef !5
  %36 = trunc i8 %35 to i1
  br i1 %36, label %40, label %37

37:                                               ; preds = %34
  call void @WALInsertLockAcquireExclusive()
  %38 = load ptr, ptr %1, align 8
  %39 = getelementptr inbounds nuw %struct.XLogCtlInsert, ptr %38, i32 0, i32 5
  store i8 0, ptr %39, align 8
  call void @WALInsertLockRelease()
  br label %40

40:                                               ; preds = %37, %34
  br label %41

41:                                               ; preds = %40
  %42 = load volatile i32, ptr @CritSectionCount, align 4
  %43 = add i32 %42, -1
  store volatile i32 %43, ptr @CritSectionCount, align 4
  br label %44

44:                                               ; preds = %41
  br label %45

45:                                               ; preds = %44
  store i32 0, ptr %3, align 4
  br label %46

46:                                               ; preds = %45, %15
  call void @llvm.lifetime.end.p0(i64 1, ptr %2) #16
  call void @llvm.lifetime.end.p0(i64 8, ptr %1) #16
  %47 = load i32, ptr %3, align 4
  switch i32 %47, label %49 [
    i32 0, label %48
    i32 1, label %48
  ]

48:                                               ; preds = %46, %46
  ret void

49:                                               ; preds = %46
  unreachable
}