; Function Attrs: nounwind uwtable
define dso_local void @UpdateFullPageWrites() local_unnamed_addr #0 {
  %1 = load ptr, ptr @XLogCtl, align 8
  %2 = load i8, ptr @fullPageWrites, align 1, !range !4, !noundef !5
  %3 = getelementptr inbounds nuw i8, ptr %1, i64 160
  %4 = load i8, ptr %3, align 8, !range !4, !noundef !5
  %5 = icmp eq i8 %2, %4
  br i1 %5, label %52, label %6

6:                                                ; preds = %0
  %7 = load i8, ptr @LocalRecoveryInProgress, align 1, !range !4, !noundef !5
  %8 = trunc nuw i8 %7 to i1
  br i1 %8, label %9, label %RecoveryInProgress.exit

9:                                                ; preds = %6
  %10 = getelementptr inbounds nuw i8, ptr %1, i64 324
  %11 = load volatile i32, ptr %10, align 4
  %12 = icmp ne i32 %11, 2
  %13 = zext i1 %12 to i8
  store i8 %13, ptr @LocalRecoveryInProgress, align 1
  br label %RecoveryInProgress.exit

RecoveryInProgress.exit:                          ; preds = %6, %9
  %.0.i = phi i1 [ %12, %9 ], [ false, %6 ]
  %14 = load volatile i32, ptr @CritSectionCount, align 4
  %15 = add i32 %14, 1
  store volatile i32 %15, ptr @CritSectionCount, align 4
  %16 = trunc nuw i8 %2 to i1
  br i1 %16, label %.preheader16, label %29

.preheader16:                                     ; preds = %RecoveryInProgress.exit, %.preheader16
  %indvars.iv.i = phi i64 [ %indvars.iv.next.i, %.preheader16 ], [ 0, %RecoveryInProgress.exit ]
  %17 = load ptr, ptr @WALInsertLocks, align 8
  %18 = getelementptr inbounds nuw %union.WALInsertLockPadded, ptr %17, i64 %indvars.iv.i
  %19 = tail call zeroext i1 @LWLockAcquire(ptr noundef %18, i32 noundef 0) #26
  %20 = load ptr, ptr @WALInsertLocks, align 8
  %21 = getelementptr inbounds nuw %union.WALInsertLockPadded, ptr %20, i64 %indvars.iv.i
  %22 = getelementptr inbounds nuw i8, ptr %21, i64 16
  tail call void @LWLockUpdateVar(ptr noundef %21, ptr noundef nonnull %22, i64 noundef -1) #26
  %indvars.iv.next.i = add nuw nsw i64 %indvars.iv.i, 1
  %exitcond.not.i = icmp eq i64 %indvars.iv.next.i, 7
  br i1 %exitcond.not.i, label %WALInsertLockAcquireExclusive.exit, label %.preheader16, !llvm.loop !18

WALInsertLockAcquireExclusive.exit:               ; preds = %.preheader16
  %23 = load ptr, ptr @WALInsertLocks, align 8
  %24 = getelementptr inbounds nuw i8, ptr %23, i64 896
  %25 = tail call zeroext i1 @LWLockAcquire(ptr noundef nonnull %24, i32 noundef 0) #26
  store i1 true, ptr @holdingAllLocks, align 1
  store i8 1, ptr %3, align 8
  br label %.preheader.i

.preheader.i:                                     ; preds = %WALInsertLockAcquireExclusive.exit, %.preheader.i
  %indvars.iv.i3 = phi i64 [ %indvars.iv.next.i4, %.preheader.i ], [ 0, %WALInsertLockAcquireExclusive.exit ]
  %26 = load ptr, ptr @WALInsertLocks, align 8
  %27 = getelementptr inbounds nuw %union.WALInsertLockPadded, ptr %26, i64 %indvars.iv.i3
  %28 = getelementptr inbounds nuw i8, ptr %27, i64 16
  tail call void @LWLockReleaseClearVar(ptr noundef %27, ptr noundef nonnull %28, i64 noundef 0) #26
  %indvars.iv.next.i4 = add nuw nsw i64 %indvars.iv.i3, 1
  %exitcond.not.i5 = icmp eq i64 %indvars.iv.next.i4, 8
  br i1 %exitcond.not.i5, label %WALInsertLockRelease.exit, label %.preheader.i, !llvm.loop !8

WALInsertLockRelease.exit:                        ; preds = %.preheader.i
  store i1 false, ptr @holdingAllLocks, align 1
  br label %29

29:                                               ; preds = %WALInsertLockRelease.exit, %RecoveryInProgress.exit
  %30 = load i32, ptr @wal_level, align 4
  %31 = icmp slt i32 %30, 1
  %brmerge = select i1 %31, i1 true, i1 %.0.i
  br i1 %brmerge, label %34, label %32

32:                                               ; preds = %29
  tail call void @XLogBeginInsert() #26
  tail call void @XLogRegisterData(ptr noundef nonnull @fullPageWrites, i32 noundef 1) #26
  %33 = tail call i64 @XLogInsert(i8 noundef zeroext 0, i8 noundef zeroext -128) #26
  br label %34

34:                                               ; preds = %29, %32
  %35 = load i8, ptr @fullPageWrites, align 1, !range !4, !noundef !5
  %36 = trunc nuw i8 %35 to i1
  br i1 %36, label %49, label %.preheader

.preheader:                                       ; preds = %34, %.preheader
  %indvars.iv.i6 = phi i64 [ %indvars.iv.next.i7, %.preheader ], [ 0, %34 ]
  %37 = load ptr, ptr @WALInsertLocks, align 8
  %38 = getelementptr inbounds nuw %union.WALInsertLockPadded, ptr %37, i64 %indvars.iv.i6
  %39 = tail call zeroext i1 @LWLockAcquire(ptr noundef %38, i32 noundef 0) #26
  %40 = load ptr, ptr @WALInsertLocks, align 8
  %41 = getelementptr inbounds nuw %union.WALInsertLockPadded, ptr %40, i64 %indvars.iv.i6
  %42 = getelementptr inbounds nuw i8, ptr %41, i64 16
  tail call void @LWLockUpdateVar(ptr noundef %41, ptr noundef nonnull %42, i64 noundef -1) #26
  %indvars.iv.next.i7 = add nuw nsw i64 %indvars.iv.i6, 1
  %exitcond.not.i8 = icmp eq i64 %indvars.iv.next.i7, 7
  br i1 %exitcond.not.i8, label %WALInsertLockAcquireExclusive.exit9, label %.preheader, !llvm.loop !18

WALInsertLockAcquireExclusive.exit9:              ; preds = %.preheader
  %43 = load ptr, ptr @WALInsertLocks, align 8
  %44 = getelementptr inbounds nuw i8, ptr %43, i64 896
  %45 = tail call zeroext i1 @LWLockAcquire(ptr noundef nonnull %44, i32 noundef 0) #26
  store i1 true, ptr @holdingAllLocks, align 1
  store i8 0, ptr %3, align 8
  br label %.preheader.i11

.preheader.i11:                                   ; preds = %WALInsertLockAcquireExclusive.exit9, %.preheader.i11
  %indvars.iv.i12 = phi i64 [ %indvars.iv.next.i13, %.preheader.i11 ], [ 0, %WALInsertLockAcquireExclusive.exit9 ]
  %46 = load ptr, ptr @WALInsertLocks, align 8
  %47 = getelementptr inbounds nuw %union.WALInsertLockPadded, ptr %46, i64 %indvars.iv.i12
  %48 = getelementptr inbounds nuw i8, ptr %47, i64 16
  tail call void @LWLockReleaseClearVar(ptr noundef %47, ptr noundef nonnull %48, i64 noundef 0) #26
  %indvars.iv.next.i13 = add nuw nsw i64 %indvars.iv.i12, 1
  %exitcond.not.i14 = icmp eq i64 %indvars.iv.next.i13, 8
  br i1 %exitcond.not.i14, label %WALInsertLockRelease.exit15, label %.preheader.i11, !llvm.loop !8

WALInsertLockRelease.exit15:                      ; preds = %.preheader.i11
  store i1 false, ptr @holdingAllLocks, align 1
  br label %49

49:                                               ; preds = %34, %WALInsertLockRelease.exit15
  %50 = load volatile i32, ptr @CritSectionCount, align 4
  %51 = add i32 %50, -1
  store volatile i32 %51, ptr @CritSectionCount, align 4
  br label %52

52:                                               ; preds = %0, %49
  ret void
}